; Function Attrs: inlinehint nounwind uwtable
define internal fastcc void @lean_ctor_release(ptr noundef captures(none) %0, i32 noundef range(i32 0, 5) %1) unnamed_addr #2 {
  %3 = getelementptr inbounds nuw i8, ptr %0, i64 8
  %4 = zext nneg i32 %1 to i64
  %5 = getelementptr inbounds nuw ptr, ptr %3, i64 %4
  %6 = load ptr, ptr %5, align 8, !tbaa !11
  %7 = ptrtoint ptr %6 to i64
  %8 = and i64 %7, 1
  %.not = icmp eq i64 %8, 0
  br i1 %.not, label %9, label %lean_dec.exit

9:                                                ; preds = %2
  %10 = load i32, ptr %6, align 4, !tbaa !4
  %11 = icmp sgt i32 %10, 1
  br i1 %11, label %12, label %14, !prof !9

12:                                               ; preds = %9
  %13 = add nsw i32 %10, -1
  store i32 %13, ptr %6, align 4, !tbaa !4
  br label %lean_dec.exit

14:                                               ; preds = %9
  %.not.i = icmp eq i32 %10, 0
  br i1 %.not.i, label %lean_dec.exit, label %15

15:                                               ; preds = %14
  tail call void @lean_dec_ref_cold(ptr noundef nonnull %6) #4
  br label %lean_dec.exit

lean_dec.exit:                                    ; preds = %15, %14, %12, %2
  store ptr inttoptr (i64 1 to ptr), ptr %5, align 8, !tbaa !11
  ret void
}